; Function Attrs: nounwind uwtable
define i32 @Wlc_NtkCollectObjs_rec(ptr noundef readonly captures(none) %0, ptr noundef %1, ptr noundef captures(none) %2) local_unnamed_addr #0 {
  %.val = load i16, ptr %1, align 8
  %4 = and i16 %.val, 61
  %narrow.i = icmp ne i16 %4, 1
  %5 = and i16 %.val, 128
  %.not20 = icmp eq i16 %5, 0
  %or.cond = and i1 %narrow.i, %.not20
  br i1 %or.cond, label %6, label %69

6:                                                ; preds = %3
  %7 = or disjoint i16 %.val, 128
  store i16 %7, ptr %1, align 8
  %8 = getelementptr i8, ptr %1, i64 4
  %.val2124 = load i32, ptr %8, align 4, !tbaa !3
  %9 = icmp sgt i32 %.val2124, 0
  br i1 %9, label %.lr.ph, label %.critedge

.lr.ph:                                           ; preds = %6
  %10 = getelementptr inbounds nuw i8, ptr %1, i64 16
  %11 = getelementptr i8, ptr %0, i64 640
  br label %12

12:                                               ; preds = %.lr.ph, %Wlc_ObjFaninId.exit
  %indvars.iv = phi i64 [ 0, %.lr.ph ], [ %indvars.iv.next, %Wlc_ObjFaninId.exit ]
  %.val2127 = phi i32 [ %.val2124, %.lr.ph ], [ %.val21, %Wlc_ObjFaninId.exit ]
  %.026 = phi i32 [ 0, %.lr.ph ], [ %24, %Wlc_ObjFaninId.exit ]
  %13 = icmp ugt i32 %.val2127, 2
  br i1 %13, label %Wlc_ObjHasArray.exit.thread.i.i, label %14

14:                                               ; preds = %12
  %15 = load i16, ptr %1, align 8
  %16 = and i16 %15, 63
  switch i16 %16, label %Wlc_ObjFaninId.exit [
    i16 6, label %Wlc_ObjHasArray.exit.thread.i.i
    i16 22, label %Wlc_ObjHasArray.exit.thread.i.i
  ]

Wlc_ObjHasArray.exit.thread.i.i:                  ; preds = %14, %14, %12
  %17 = load ptr, ptr %10, align 8, !tbaa !8
  br label %Wlc_ObjFaninId.exit

Wlc_ObjFaninId.exit:                              ; preds = %14, %Wlc_ObjHasArray.exit.thread.i.i
  %18 = phi ptr [ %17, %Wlc_ObjHasArray.exit.thread.i.i ], [ %10, %14 ]
  %19 = getelementptr inbounds nuw i32, ptr %18, i64 %indvars.iv
  %20 = load i32, ptr %19, align 4, !tbaa !9
  %.val22 = load ptr, ptr %11, align 8, !tbaa !10
  %21 = sext i32 %20 to i64
  %22 = getelementptr inbounds %struct.Wlc_Obj_t_, ptr %.val22, i64 %21
  %23 = tail call i32 @Wlc_NtkCollectObjs_rec(ptr noundef %0, ptr noundef %22, ptr noundef %2)
  %24 = add nsw i32 %23, %.026
  %indvars.iv.next = add nuw nsw i64 %indvars.iv, 1
  %.val21 = load i32, ptr %8, align 4, !tbaa !3
  %25 = sext i32 %.val21 to i64
  %26 = icmp slt i64 %indvars.iv.next, %25
  br i1 %26, label %12, label %.critedge, !llvm.loop !22

.critedge:                                        ; preds = %Wlc_ObjFaninId.exit, %6
  %.0.lcssa = phi i32 [ 0, %6 ], [ %24, %Wlc_ObjFaninId.exit ]
  %27 = getelementptr i8, ptr %0, i64 640
  %.val23 = load ptr, ptr %27, align 8, !tbaa !10
  %28 = ptrtoint ptr %1 to i64
  %29 = ptrtoint ptr %.val23 to i64
  %30 = sub i64 %28, %29
  %31 = sdiv exact i64 %30, 24
  %32 = trunc i64 %31 to i32
  %33 = getelementptr inbounds nuw i8, ptr %2, i64 4
  %34 = load i32, ptr %33, align 4, !tbaa !24
  %35 = load i32, ptr %2, align 8, !tbaa !25
  %36 = icmp eq i32 %34, %35
  br i1 %36, label %37, label %.Vec_IntGrow.exit10_crit_edge.i

.Vec_IntGrow.exit10_crit_edge.i:                  ; preds = %.critedge
  %.phi.trans.insert.i = getelementptr inbounds nuw i8, ptr %2, i64 8
  %.pre.i = load ptr, ptr %.phi.trans.insert.i, align 8, !tbaa !26
  br label %Vec_IntPush.exit

37:                                               ; preds = %.critedge
  %38 = icmp slt i32 %34, 16
  br i1 %38, label %39, label %47

39:                                               ; preds = %37
  %40 = getelementptr inbounds nuw i8, ptr %2, i64 8
  %41 = load ptr, ptr %40, align 8, !tbaa !26
  %.not9.i.i = icmp eq ptr %41, null
  br i1 %.not9.i.i, label %44, label %42

42:                                               ; preds = %39
  %43 = tail call dereferenceable_or_null(64) ptr @realloc(ptr noundef nonnull %41, i64 noundef 64) #16
  br label %Vec_IntGrow.exit.i

44:                                               ; preds = %39
  %45 = tail call noalias dereferenceable_or_null(64) ptr @malloc(i64 noundef 64) #17
  br label %Vec_IntGrow.exit.i

Vec_IntGrow.exit.i:                               ; preds = %44, %42
  %46 = phi ptr [ %43, %42 ], [ %45, %44 ]
  store ptr %46, ptr %40, align 8, !tbaa !26
  store i32 16, ptr %2, align 8, !tbaa !25
  br label %Vec_IntPush.exit

47:                                               ; preds = %37
  %48 = shl nuw nsw i32 %34, 1
  %49 = getelementptr inbounds nuw i8, ptr %2, i64 8
  %50 = load ptr, ptr %49, align 8, !tbaa !26
  %.not9.i9.i = icmp eq ptr %50, null
  %51 = zext nneg i32 %48 to i64
  %52 = shl nuw nsw i64 %51, 2
  br i1 %.not9.i9.i, label %55, label %53

53:                                               ; preds = %47
  %54 = tail call ptr @realloc(ptr noundef nonnull %50, i64 noundef %52) #16
  br label %57

55:                                               ; preds = %47
  %56 = tail call noalias ptr @malloc(i64 noundef %52) #17
  br label %57

57:                                               ; preds = %55, %53
  %58 = phi ptr [ %54, %53 ], [ %56, %55 ]
  store ptr %58, ptr %49, align 8, !tbaa !26
  store i32 %48, ptr %2, align 8, !tbaa !25
  br label %Vec_IntPush.exit

Vec_IntPush.exit:                                 ; preds = %.Vec_IntGrow.exit10_crit_edge.i, %Vec_IntGrow.exit.i, %57
  %59 = phi ptr [ %.pre.i, %.Vec_IntGrow.exit10_crit_edge.i ], [ %58, %57 ], [ %46, %Vec_IntGrow.exit.i ]
  %60 = load i32, ptr %33, align 4, !tbaa !24
  %61 = add nsw i32 %60, 1
  store i32 %61, ptr %33, align 4, !tbaa !24
  %62 = sext i32 %60 to i64
  %63 = getelementptr inbounds i32, ptr %59, i64 %62
  store i32 %32, ptr %63, align 4, !tbaa !9
  %64 = load i16, ptr %1, align 8
  %65 = and i16 %64, 63
  %66 = icmp eq i16 %65, 45
  %67 = zext i1 %66 to i32
  %68 = add nsw i32 %.0.lcssa, %67
  br label %69

69:                                               ; preds = %3, %Vec_IntPush.exit
  %.018 = phi i32 [ %68, %Vec_IntPush.exit ], [ 0, %3 ]
  ret i32 %.018
}